; Function Attrs: mustprogress uwtable
define internal fastcc void @_ZL22makeHugeFunctionSourceB5cxx11v(ptr dead_on_unwind noalias nonnull writable align 8 %0) unnamed_addr #4 personality ptr @__gxx_personality_v0 {
  %2 = alloca %"class.std::__cxx11::basic_string", align 8
  tail call void @_ZNSt7__cxx1112basic_stringIcSt11char_traitsIcESaIcEEC1Ev(ptr noundef nonnull align 8 dereferenceable(32) %0) #35
  %3 = invoke noundef nonnull align 8 dereferenceable(32) ptr @_ZNSt7__cxx1112basic_stringIcSt11char_traitsIcESaIcEEpLEPKc(ptr noundef nonnull align 8 dereferenceable(32) %0, ptr noundef nonnull @.str.522)
          to label %4 unwind label %.loopexit.split-lp

4:                                                ; preds = %1
  %5 = invoke noundef nonnull align 8 dereferenceable(32) ptr @_ZNSt7__cxx1112basic_stringIcSt11char_traitsIcESaIcEEpLEPKc(ptr noundef nonnull align 8 dereferenceable(32) %0, ptr noundef nonnull @.str.523)
          to label %.preheader unwind label %.loopexit.split-lp

.preheader:                                       ; preds = %4, %11
  %.08 = phi i32 [ %12, %11 ], [ 0, %4 ]
  %6 = invoke noundef nonnull align 8 dereferenceable(32) ptr @_ZNSt7__cxx1112basic_stringIcSt11char_traitsIcESaIcEEpLEPKc(ptr noundef nonnull align 8 dereferenceable(32) %0, ptr noundef nonnull @.str.524)
          to label %7 unwind label %.loopexit

7:                                                ; preds = %.preheader
  call void @_ZNSt7__cxx119to_stringEi(ptr dead_on_unwind nonnull writable sret(%"class.std::__cxx11::basic_string") align 8 %2, i32 noundef %.08) #35
  %8 = invoke noundef nonnull align 8 dereferenceable(32) ptr @_ZNSt7__cxx1112basic_stringIcSt11char_traitsIcESaIcEEpLERKS4_(ptr noundef nonnull align 8 dereferenceable(32) %0, ptr noundef nonnull align 8 dereferenceable(32) %2)
          to label %9 unwind label %13

9:                                                ; preds = %7
  call void @_ZNSt7__cxx1112basic_stringIcSt11char_traitsIcESaIcEED1Ev(ptr noundef nonnull align 8 dereferenceable(32) %2) #35
  %10 = invoke noundef nonnull align 8 dereferenceable(32) ptr @_ZNSt7__cxx1112basic_stringIcSt11char_traitsIcESaIcEEpLEPKc(ptr noundef nonnull align 8 dereferenceable(32) %0, ptr noundef nonnull @.str.525)
          to label %11 unwind label %.loopexit

11:                                               ; preds = %9
  %12 = add nuw nsw i32 %.08, 1
  %exitcond.not = icmp eq i32 %12, 40000
  br i1 %exitcond.not, label %15, label %.preheader, !llvm.loop !434

.loopexit:                                        ; preds = %.preheader, %9
  %lpad.loopexit = landingpad { ptr, i32 }
          cleanup
  br label %22

.loopexit.split-lp:                               ; preds = %1, %4, %15, %17, %19
  %lpad.loopexit.split-lp = landingpad { ptr, i32 }
          cleanup
  br label %22

13:                                               ; preds = %7
  %14 = landingpad { ptr, i32 }
          cleanup
  call void @_ZNSt7__cxx1112basic_stringIcSt11char_traitsIcESaIcEED1Ev(ptr noundef nonnull align 8 dereferenceable(32) %2) #35
  br label %22

15:                                               ; preds = %11
  %16 = invoke noundef nonnull align 8 dereferenceable(32) ptr @_ZNSt7__cxx1112basic_stringIcSt11char_traitsIcESaIcEEpLEPKc(ptr noundef nonnull align 8 dereferenceable(32) %0, ptr noundef nonnull @.str.526)
          to label %17 unwind label %.loopexit.split-lp

17:                                               ; preds = %15
  %18 = invoke noundef nonnull align 8 dereferenceable(32) ptr @_ZNSt7__cxx1112basic_stringIcSt11char_traitsIcESaIcEEpLEPKc(ptr noundef nonnull align 8 dereferenceable(32) %0, ptr noundef nonnull @.str.527)
          to label %19 unwind label %.loopexit.split-lp

19:                                               ; preds = %17
  %20 = invoke noundef nonnull align 8 dereferenceable(32) ptr @_ZNSt7__cxx1112basic_stringIcSt11char_traitsIcESaIcEEpLEPKc(ptr noundef nonnull align 8 dereferenceable(32) %0, ptr noundef nonnull @.str.528)
          to label %21 unwind label %.loopexit.split-lp

21:                                               ; preds = %19
  ret void

22:                                               ; preds = %.loopexit, %.loopexit.split-lp, %13
  %.pn = phi { ptr, i32 } [ %14, %13 ], [ %lpad.loopexit, %.loopexit ], [ %lpad.loopexit.split-lp, %.loopexit.split-lp ]
  call void @_ZNSt7__cxx1112basic_stringIcSt11char_traitsIcESaIcEED1Ev(ptr noundef nonnull align 8 dereferenceable(32) %0) #35
  resume { ptr, i32 } %.pn
}